target datalayout = "e-m:e-p270:32:32-p271:32:32-p272:64:64-i64:64-i128:128-f80:128-n8:16:32:64-S128"
target triple = "x86_64-pc-linux-gnu"

%"class.std::vector.10" = type { %"struct.std::_Vector_base.11" }
%"struct.std::_Vector_base.11" = type { %"struct.std::_Vector_base<float, std::allocator<float>>::_Vector_impl" }
%"struct.std::_Vector_base<float, std::allocator<float>>::_Vector_impl" = type { %"struct.std::_Vector_base<float, std::allocator<float>>::_Vector_impl_data" }
%"struct.std::_Vector_base<float, std::allocator<float>>::_Vector_impl_data" = type { ptr, ptr, ptr }
%"struct.faiss::Index.base" = type <{ ptr, i32, [4 x i8], i64, i8, i8, [2 x i8], i32, float }>
%"struct.faiss::IndexIVFInterface" = type { ptr, %"struct.faiss::Level1Quantizer", i64, i64 }
%"struct.faiss::Level1Quantizer" = type { ptr, i64, i8, i8, %"struct.faiss::ClusteringParameters", ptr }
%"struct.faiss::ClusteringParameters" = type { i32, i32, i8, i8, i8, i8, i8, i32, i32, i32, i64 }
%"struct.faiss::DirectMap" = type { i32, %"class.std::vector", %"class.std::unordered_map" }
%"class.std::vector" = type { %"struct.std::_Vector_base" }
%"struct.std::_Vector_base" = type { %"struct.std::_Vector_base<long, std::allocator<long>>::_Vector_impl" }
%"struct.std::_Vector_base<long, std::allocator<long>>::_Vector_impl" = type { %"struct.std::_Vector_base<long, std::allocator<long>>::_Vector_impl_data" }
%"struct.std::_Vector_base<long, std::allocator<long>>::_Vector_impl_data" = type { ptr, ptr, ptr }
%"class.std::unordered_map" = type { %"class.std::_Hashtable" }
%"class.std::_Hashtable" = type { ptr, i64, %"struct.std::__detail::_Hash_node_base", i64, %"struct.std::__detail::_Prime_rehash_policy", ptr }
%"struct.std::__detail::_Hash_node_base" = type { ptr }
%"struct.std::__detail::_Prime_rehash_policy" = type { float, i64 }
%"struct.faiss::IndexIVF.base" = type <{ %"struct.faiss::Index.base", [4 x i8], %"struct.faiss::IndexIVFInterface", ptr, i8, [7 x i8], i64, i32, i32, %"struct.faiss::DirectMap", i8 }>
%"struct.faiss::Quantizer" = type { ptr, i64, i64 }
%"class.std::vector.5" = type { %"struct.std::_Vector_base.6" }
%"struct.std::_Vector_base.6" = type { %"struct.std::_Vector_base<unsigned long, std::allocator<unsigned long>>::_Vector_impl" }
%"struct.std::_Vector_base<unsigned long, std::allocator<unsigned long>>::_Vector_impl" = type { %"struct.std::_Vector_base<unsigned long, std::allocator<unsigned long>>::_Vector_impl_data" }
%"struct.std::_Vector_base<unsigned long, std::allocator<unsigned long>>::_Vector_impl_data" = type { ptr, ptr, ptr }
%"struct.faiss::IndexFlat1D" = type { %"struct.faiss::IndexFlatL2", i8, %"class.std::vector" }
%"struct.faiss::IndexFlatL2" = type { %"struct.faiss::IndexFlat", %"class.std::vector.10" }
%"struct.faiss::IndexFlat" = type { %"struct.faiss::IndexFlatCodes" }
%"struct.faiss::IndexFlatCodes" = type { %"struct.faiss::Index.base", i64, %"class.std::vector.15" }
%"class.std::vector.15" = type { %"struct.std::_Vector_base.16" }
%"struct.std::_Vector_base.16" = type { %"struct.std::_Vector_base<unsigned char, std::allocator<unsigned char>>::_Vector_impl" }
%"struct.std::_Vector_base<unsigned char, std::allocator<unsigned char>>::_Vector_impl" = type { %"struct.std::_Vector_base<unsigned char, std::allocator<unsigned char>>::_Vector_impl_data" }
%"struct.std::_Vector_base<unsigned char, std::allocator<unsigned char>>::_Vector_impl_data" = type { ptr, ptr, ptr }
%"struct.faiss::IndexIVFAdditiveQuantizer.base" = type <{ %"struct.faiss::IndexIVF.base", [7 x i8], ptr, i32 }>
%"struct.faiss::AdditiveQuantizer.base" = type <{ %"struct.faiss::Quantizer", i64, %"class.std::vector.5", %"class.std::vector.10", %"class.std::vector.5", i64, i64, i64, i8, i8, i8, [5 x i8], %"struct.faiss::IndexFlat1D", %"class.std::vector.10", i64, i32, float, float }>
%"struct.faiss::IndexIVFProductResidualQuantizer" = type { %"struct.faiss::IndexIVFAdditiveQuantizer.base", %"struct.faiss::ProductResidualQuantizer" }
%"struct.faiss::ProductResidualQuantizer" = type { %"struct.faiss::ProductAdditiveQuantizer" }
%"struct.faiss::ProductAdditiveQuantizer" = type { %"struct.faiss::AdditiveQuantizer.base", i64, %"class.std::vector.37" }
%"class.std::vector.37" = type { %"struct.std::_Vector_base.38" }
%"struct.std::_Vector_base.38" = type { %"struct.std::_Vector_base<faiss::AdditiveQuantizer *, std::allocator<faiss::AdditiveQuantizer *>>::_Vector_impl" }
%"struct.std::_Vector_base<faiss::AdditiveQuantizer *, std::allocator<faiss::AdditiveQuantizer *>>::_Vector_impl" = type { %"struct.std::_Vector_base<faiss::AdditiveQuantizer *, std::allocator<faiss::AdditiveQuantizer *>>::_Vector_impl_data" }
%"struct.std::_Vector_base<faiss::AdditiveQuantizer *, std::allocator<faiss::AdditiveQuantizer *>>::_Vector_impl_data" = type { ptr, ptr, ptr }

; Function Attrs: mustprogress nounwind uwtable
define void @_ZN5faiss25IndexIVFAdditiveQuantizerD2Ev(ptr noundef nonnull align 8 dereferenceable(276) %0) unnamed_addr #0 align 2 {
  %2 = alloca ptr, align 8
  store ptr %0, ptr %2, align 8
  %3 = load ptr, ptr %2, align 8
  call void @_ZN5faiss8IndexIVFD2Ev(ptr noundef nonnull align 8 dereferenceable(257) %3) #7
  ret void
}

; Function Attrs: mustprogress nounwind uwtable
define linkonce_odr void @_ZN5faiss24ProductResidualQuantizerD2Ev(ptr noundef nonnull align 8 dereferenceable(344) %0) unnamed_addr #0 comdat align 2 {
  %2 = alloca ptr, align 8
  store ptr %0, ptr %2, align 8
  %3 = load ptr, ptr %2, align 8
  call void @_ZN5faiss24ProductAdditiveQuantizerD2Ev(ptr noundef nonnull align 8 dereferenceable(344) %3) #7
  ret void
}

; Function Attrs: mustprogress nounwind uwtable
define void @_ZN5faiss32IndexIVFProductResidualQuantizerD2Ev(ptr noundef nonnull align 8 dereferenceable(624) %0) unnamed_addr #0 align 2 {
  %2 = alloca ptr, align 8
  store ptr %0, ptr %2, align 8
  %3 = load ptr, ptr %2, align 8
  store ptr getelementptr inbounds ({ [35 x ptr], [6 x ptr] }, ptr @_ZTVN5faiss32IndexIVFProductResidualQuantizerE, i32 0, i32 0, i32 2), ptr %3, align 8
  %4 = getelementptr inbounds i8, ptr %3, i64 40
  store ptr getelementptr inbounds ({ [35 x ptr], [6 x ptr] }, ptr @_ZTVN5faiss32IndexIVFProductResidualQuantizerE, i32 0, i32 1, i32 2), ptr %4, align 8
  %5 = getelementptr inbounds %"struct.faiss::IndexIVFProductResidualQuantizer", ptr %3, i32 0, i32 1
  call void @_ZN5faiss24ProductResidualQuantizerD2Ev(ptr noundef nonnull align 8 dereferenceable(344) %5) #7
  call void @_ZN5faiss25IndexIVFAdditiveQuantizerD2Ev(ptr noundef nonnull align 8 dereferenceable(276) %3) #7
  ret void
}