; Function Attrs: mustprogress nounwind uwtable
define void @_ZN5faiss32IndexIVFProductResidualQuantizerD2Ev(ptr noundef nonnull align 8 dereferenceable(624) %0) unnamed_addr #0 align 2 {
  store ptr getelementptr inbounds ({ [35 x ptr], [6 x ptr] }, ptr @_ZTVN5faiss32IndexIVFProductResidualQuantizerE, i64 0, i32 0, i64 2), ptr %0, align 8
  %2 = getelementptr inbounds i8, ptr %0, i64 40
  store ptr getelementptr inbounds ({ [35 x ptr], [6 x ptr] }, ptr @_ZTVN5faiss32IndexIVFProductResidualQuantizerE, i64 0, i32 1, i64 2), ptr %2, align 8
  %3 = getelementptr inbounds i8, ptr %0, i64 280
  tail call void @_ZN5faiss24ProductAdditiveQuantizerD2Ev(ptr noundef nonnull align 8 dereferenceable(344) %3) #9
  tail call void @_ZN5faiss8IndexIVFD2Ev(ptr noundef nonnull align 8 dereferenceable(257) %0) #9
  ret void
}